target datalayout = "e-m:e-p270:32:32-p271:32:32-p272:64:64-i64:64-i128:128-f80:128-n8:16:32:64-S128"
target triple = "x86_64-pc-linux-gnu"

%"class.std::basic_string_view" = type { i64, ptr }
%"struct.toml::v3::source_position" = type { i32, i32 }
%"class.std::shared_ptr" = type { %"class.std::__shared_ptr" }
%"class.std::__shared_ptr" = type { ptr, %"class.std::__shared_count" }
%"class.std::__shared_count" = type { ptr }
%"struct.(anonymous namespace)::utf8_codepoint" = type { i32, [4 x i8], i64, %"struct.toml::v3::source_position" }
%"class.(anonymous namespace)::utf8_reader" = type { %"struct.(anonymous namespace)::utf8_reader_interface", %"class.(anonymous namespace)::utf8_byte_stream", %"struct.toml::v3::source_position", %"struct.toml::v3::impl::utf8_decoder", %"struct.(anonymous namespace)::utf8_reader<std::basic_string_view<char>>::currently_decoding_t", %"struct.(anonymous namespace)::utf8_reader<std::basic_string_view<char>>::codepoints_t", %"class.std::shared_ptr", [16 x i8] }
%"struct.(anonymous namespace)::utf8_reader_interface" = type { ptr }
%"class.(anonymous namespace)::utf8_byte_stream" = type { %"class.std::basic_string_view", i64 }
%"struct.toml::v3::impl::utf8_decoder" = type { i32, i32 }
%"struct.(anonymous namespace)::utf8_reader<std::basic_string_view<char>>::currently_decoding_t" = type { [4 x i8], i64 }
%"struct.(anonymous namespace)::utf8_reader<std::basic_string_view<char>>::codepoints_t" = type { [32 x %"struct.(anonymous namespace)::utf8_codepoint"], i64, i64, [16 x i8] }
%class.anon.127 = type { ptr }

; Function Attrs: alwaysinline mustprogress nounwind willreturn memory(read) uwtable
define internal noundef nonnull align 4 dereferenceable(4) ptr @_ZNK12_GLOBAL__N_114utf8_codepointcvRKDiEv(ptr noundef nonnull align 8 dereferenceable(24) %0) #5 align 2 {
  %2 = alloca ptr, align 8
  store ptr %0, ptr %2, align 8, !tbaa !315
  %3 = load ptr, ptr %2, align 8
  %4 = getelementptr inbounds nuw %"struct.(anonymous namespace)::utf8_codepoint", ptr %3, i32 0, i32 0
  ret ptr %4
}

; Function Attrs: inlinehint mustprogress nounwind uwtable
define internal void @_ZZN12_GLOBAL__N_111utf8_readerISt17basic_string_viewIcSt11char_traitsIcEEE15read_next_blockEvENKUlvE_clEv(ptr noundef nonnull align 8 dereferenceable(8) %0) #3 align 2 {
  %2 = alloca ptr, align 8
  %3 = alloca i64, align 8
  %4 = alloca ptr, align 8
  store ptr %0, ptr %2, align 8, !tbaa !159
  %5 = load ptr, ptr %2, align 8
  %6 = getelementptr inbounds nuw %class.anon.127, ptr %5, i32 0, i32 0
  %7 = load ptr, ptr %6, align 8, !tbaa !972
  call void @llvm.lifetime.start.p0(i64 8, ptr %3) #36
  store i64 0, ptr %3, align 8, !tbaa !10
  br label %8

8:                                                ; preds = %40, %1
  %9 = load i64, ptr %3, align 8, !tbaa !10
  %10 = getelementptr inbounds nuw %"class.(anonymous namespace)::utf8_reader", ptr %7, i32 0, i32 5
  %11 = getelementptr inbounds nuw %"struct.(anonymous namespace)::utf8_reader<std::basic_string_view<char>>::codepoints_t", ptr %10, i32 0, i32 2
  %12 = load i64, ptr %11, align 8, !tbaa !362
  %13 = icmp ult i64 %9, %12
  br i1 %13, label %15, label %14

14:                                               ; preds = %8
  call void @llvm.lifetime.end.p0(i64 8, ptr %3) #36
  br label %43

15:                                               ; preds = %8
  call void @llvm.lifetime.start.p0(i64 8, ptr %4) #36
  %16 = getelementptr inbounds nuw %"class.(anonymous namespace)::utf8_reader", ptr %7, i32 0, i32 5
  %17 = getelementptr inbounds nuw %"struct.(anonymous namespace)::utf8_reader<std::basic_string_view<char>>::codepoints_t", ptr %16, i32 0, i32 0
  %18 = load i64, ptr %3, align 8, !tbaa !10
  %19 = getelementptr inbounds nuw [32 x %"struct.(anonymous namespace)::utf8_codepoint"], ptr %17, i64 0, i64 %18
  store ptr %19, ptr %4, align 8, !tbaa !315
  %20 = getelementptr inbounds nuw %"class.(anonymous namespace)::utf8_reader", ptr %7, i32 0, i32 2
  %21 = load ptr, ptr %4, align 8, !tbaa !315
  %22 = getelementptr inbounds nuw %"struct.(anonymous namespace)::utf8_codepoint", ptr %21, i32 0, i32 3
  call void @llvm.memcpy.p0.p0.i64(ptr align 8 %22, ptr align 32 %20, i64 8, i1 false), !tbaa.struct !320
  %23 = load ptr, ptr %4, align 8, !tbaa !315
  %24 = call noundef nonnull align 4 dereferenceable(4) ptr @_ZNK12_GLOBAL__N_114utf8_codepointcvRKDiEv(ptr noundef nonnull align 8 dereferenceable(24) %23) #37
  %25 = load i32, ptr %24, align 4, !tbaa !311
  %26 = icmp eq i32 %25, 10
  br i1 %26, label %27, label %34

27:                                               ; preds = %15
  %28 = getelementptr inbounds nuw %"class.(anonymous namespace)::utf8_reader", ptr %7, i32 0, i32 2
  %29 = getelementptr inbounds nuw %"struct.toml::v3::source_position", ptr %28, i32 0, i32 0
  %30 = load i32, ptr %29, align 32, !tbaa !979
  %31 = add i32 %30, 1
  store i32 %31, ptr %29, align 32, !tbaa !979
  %32 = getelementptr inbounds nuw %"class.(anonymous namespace)::utf8_reader", ptr %7, i32 0, i32 2
  %33 = getelementptr inbounds nuw %"struct.toml::v3::source_position", ptr %32, i32 0, i32 1
  store i32 1, ptr %33, align 4, !tbaa !980
  br label %39

34:                                               ; preds = %15
  %35 = getelementptr inbounds nuw %"class.(anonymous namespace)::utf8_reader", ptr %7, i32 0, i32 2
  %36 = getelementptr inbounds nuw %"struct.toml::v3::source_position", ptr %35, i32 0, i32 1
  %37 = load i32, ptr %36, align 4, !tbaa !980
  %38 = add i32 %37, 1
  store i32 %38, ptr %36, align 4, !tbaa !980
  br label %39

39:                                               ; preds = %34, %27
  call void @llvm.lifetime.end.p0(i64 8, ptr %4) #36
  br label %40

40:                                               ; preds = %39
  %41 = load i64, ptr %3, align 8, !tbaa !10
  %42 = add i64 %41, 1
  store i64 %42, ptr %3, align 8, !tbaa !10
  br label %8, !llvm.loop !981

43:                                               ; preds = %14
  ret void
}