; Function Attrs: inlinehint mustprogress nofree norecurse nosync nounwind memory(argmem: readwrite) uwtable
define internal fastcc void @_ZZN12_GLOBAL__N_111utf8_readerISt17basic_string_viewIcSt11char_traitsIcEEE15read_next_blockEvENKUlvE_clEv(ptr captures(none) %.0.val) unnamed_addr #45 align 2 {
  %1 = getelementptr inbounds nuw i8, ptr %.0.val, i64 840
  %2 = load i64, ptr %1, align 8, !tbaa !679
  %.not = icmp eq i64 %2, 0
  br i1 %.not, label %._crit_edge, label %.lr.ph

.lr.ph:                                           ; preds = %0
  %3 = getelementptr inbounds nuw i8, ptr %.0.val, i64 64
  %4 = getelementptr inbounds nuw i8, ptr %.0.val, i64 32
  %5 = getelementptr inbounds nuw i8, ptr %.0.val, i64 36
  br label %6

._crit_edge:                                      ; preds = %19, %0
  ret void

6:                                                ; preds = %.lr.ph, %19
  %.01 = phi i64 [ 0, %.lr.ph ], [ %20, %19 ]
  %7 = getelementptr inbounds nuw [32 x %"struct.(anonymous namespace)::utf8_codepoint"], ptr %3, i64 0, i64 %.01
  %8 = getelementptr inbounds nuw i8, ptr %7, i64 16
  %9 = load i64, ptr %4, align 32
  store i64 %9, ptr %8, align 8
  %10 = load i32, ptr %7, align 4, !tbaa !354
  %11 = icmp eq i32 %10, 10
  br i1 %11, label %12, label %15

12:                                               ; preds = %6
  %13 = trunc i64 %9 to i32
  %14 = add i32 %13, 1
  store i32 %14, ptr %4, align 32, !tbaa !682
  br label %19

15:                                               ; preds = %6
  %16 = lshr i64 %9, 32
  %17 = trunc nuw i64 %16 to i32
  %18 = add i32 %17, 1
  br label %19

19:                                               ; preds = %15, %12
  %storemerge = phi i32 [ %18, %15 ], [ 1, %12 ]
  store i32 %storemerge, ptr %5, align 4, !tbaa !683
  %20 = add nuw i64 %.01, 1
  %exitcond.not = icmp eq i64 %20, %2
  br i1 %exitcond.not, label %._crit_edge, label %6, !llvm.loop !684
}